{
   <insert_a_suppression_name_here>
   Memcheck:Cond
   fun:_ZNK3re210SparseSetTIvE8containsEi
   fun:_ZN3re210SparseSetTIvE14InsertInternalEbi
   fun:_ZN3re210SparseSetTIvE6insertEi
   fun:_ZN3re2L10AddToQueueEPNS_10SparseSetTIvEEi
   fun:_ZN3re24Prog8OptimizeEv
   fun:_ZN3re28Compiler6FinishEPNS_6RegexpE
   fun:_ZN3re28Compiler7CompileEPNS_6RegexpEbl
   fun:_ZN3re26Regexp13CompileToProgEl
   fun:_ZN3re23RE24InitERKNS_11StringPieceERKNS0_7OptionsE
   fun:_ZN3re23RE2C1ERKNS_11StringPieceERKNS0_7OptionsE
   fun:_ZSt11make_uniqueIN3re23RE2EJRKNSt7__cxx1112basic_stringIcSt11char_traitsIcESaIcEEERNS1_7OptionsEEENSt9_MakeUniqIT_E15__single_objectEDpOT0_
   fun:_ZN5ddwaf14rule_processor11regex_matchC1ERKNSt7__cxx1112basic_stringIcSt11char_traitsIcESaIcEEEmb
}
{
   <insert_a_suppression_name_here>
   Memcheck:Cond
   fun:_ZNK3re210SparseSetTIvE8containsEi
   fun:_ZN3re210SparseSetTIvE12create_indexEi
   fun:_ZN3re210SparseSetTIvE14InsertInternalEbi
   fun:_ZN3re210SparseSetTIvE6insertEi
   fun:_ZN3re2L10AddToQueueEPNS_10SparseSetTIvEEi
   fun:_ZN3re24Prog8OptimizeEv
   fun:_ZN3re28Compiler6FinishEPNS_6RegexpE
   fun:_ZN3re28Compiler7CompileEPNS_6RegexpEbl
   fun:_ZN3re26Regexp13CompileToProgEl
   fun:_ZN3re23RE24InitERKNS_11StringPieceERKNS0_7OptionsE
   fun:_ZN3re23RE2C1ERKNS_11StringPieceERKNS0_7OptionsE
   fun:_ZSt11make_uniqueIN3re23RE2EJRKNSt7__cxx1112basic_stringIcSt11char_traitsIcESaIcEEERNS1_7OptionsEEENSt9_MakeUniqIT_E15__single_objectEDpOT0_
}
{
   <insert_a_suppression_name_here>
   Memcheck:Value8
   fun:_ZNK3re210SparseSetTIvE8containsEi
   fun:_ZN3re210SparseSetTIvE14InsertInternalEbi
   fun:_ZN3re210SparseSetTIvE6insertEi
   fun:_ZN3re2L10AddToQueueEPNS_10SparseSetTIvEEi
   fun:_ZN3re24Prog8OptimizeEv
   fun:_ZN3re28Compiler6FinishEPNS_6RegexpE
   fun:_ZN3re28Compiler7CompileEPNS_6RegexpEbl
   fun:_ZN3re26Regexp13CompileToProgEl
   fun:_ZN3re23RE24InitERKNS_11StringPieceERKNS0_7OptionsE
   fun:_ZN3re23RE2C1ERKNS_11StringPieceERKNS0_7OptionsE
   fun:_ZSt11make_uniqueIN3re23RE2EJRKNSt7__cxx1112basic_stringIcSt11char_traitsIcESaIcEEERNS1_7OptionsEEENSt9_MakeUniqIT_E15__single_objectEDpOT0_
   fun:_ZN5ddwaf14rule_processor11regex_matchC1ERKNSt7__cxx1112basic_stringIcSt11char_traitsIcESaIcEEEmb
}
{
   <insert_a_suppression_name_here>
   Memcheck:Value8
   fun:_ZNK3re210SparseSetTIvE8containsEi
   fun:_ZN3re210SparseSetTIvE12create_indexEi
   fun:_ZN3re210SparseSetTIvE14InsertInternalEbi
   fun:_ZN3re210SparseSetTIvE6insertEi
   fun:_ZN3re2L10AddToQueueEPNS_10SparseSetTIvEEi
   fun:_ZN3re24Prog8OptimizeEv
   fun:_ZN3re28Compiler6FinishEPNS_6RegexpE
   fun:_ZN3re28Compiler7CompileEPNS_6RegexpEbl
   fun:_ZN3re26Regexp13CompileToProgEl
   fun:_ZN3re23RE24InitERKNS_11StringPieceERKNS0_7OptionsE
   fun:_ZN3re23RE2C1ERKNS_11StringPieceERKNS0_7OptionsE
   fun:_ZSt11make_uniqueIN3re23RE2EJRKNSt7__cxx1112basic_stringIcSt11char_traitsIcESaIcEEERNS1_7OptionsEEENSt9_MakeUniqIT_E15__single_objectEDpOT0_
}
{
   <insert_a_suppression_name_here>
   Memcheck:Cond
   fun:_ZNK3re211SparseArrayIiE9has_indexEi
   fun:_ZN3re211SparseArrayIiE11SetInternalEbiRKi
   fun:_ZN3re211SparseArrayIiE7set_newEiRKi
   fun:_ZN3re24Prog14MarkSuccessorsEPNS_11SparseArrayIiEES3_PSt6vectorIS4_IiSaIiEESaIS6_EEPNS_10SparseSetTIvEEPS6_
   fun:_ZN3re24Prog7FlattenEv
   fun:_ZN3re28Compiler6FinishEPNS_6RegexpE
   fun:_ZN3re28Compiler7CompileEPNS_6RegexpEbl
   fun:_ZN3re26Regexp13CompileToProgEl
   fun:_ZN3re23RE24InitERKNS_11StringPieceERKNS0_7OptionsE
   fun:_ZN3re23RE2C1ERKNS_11StringPieceERKNS0_7OptionsE
   fun:_ZSt11make_uniqueIN3re23RE2EJRKNSt7__cxx1112basic_stringIcSt11char_traitsIcESaIcEEERNS1_7OptionsEEENSt9_MakeUniqIT_E15__single_objectEDpOT0_
   fun:_ZN5ddwaf14rule_processor11regex_matchC1ERKNSt7__cxx1112basic_stringIcSt11char_traitsIcESaIcEEEmb
}
{
   <insert_a_suppression_name_here>
   Memcheck:Cond
   fun:_ZNK3re211SparseArrayIiE9has_indexEi
   fun:_ZN3re211SparseArrayIiE12create_indexEi
   fun:_ZN3re211SparseArrayIiE11SetInternalEbiRKi
   fun:_ZN3re211SparseArrayIiE7set_newEiRKi
   fun:_ZN3re24Prog14MarkSuccessorsEPNS_11SparseArrayIiEES3_PSt6vectorIS4_IiSaIiEESaIS6_EEPNS_10SparseSetTIvEEPS6_
   fun:_ZN3re24Prog7FlattenEv
   fun:_ZN3re28Compiler6FinishEPNS_6RegexpE
   fun:_ZN3re28Compiler7CompileEPNS_6RegexpEbl
   fun:_ZN3re26Regexp13CompileToProgEl
   fun:_ZN3re23RE24InitERKNS_11StringPieceERKNS0_7OptionsE
   fun:_ZN3re23RE2C1ERKNS_11StringPieceERKNS0_7OptionsE
   fun:_ZSt11make_uniqueIN3re23RE2EJRKNSt7__cxx1112basic_stringIcSt11char_traitsIcESaIcEEERNS1_7OptionsEEENSt9_MakeUniqIT_E15__single_objectEDpOT0_
}
{
   <insert_a_suppression_name_here>
   Memcheck:Cond
   fun:_ZNK3re211SparseArrayIiE9has_indexEi
   fun:_ZN3re24Prog14MarkSuccessorsEPNS_11SparseArrayIiEES3_PSt6vectorIS4_IiSaIiEESaIS6_EEPNS_10SparseSetTIvEEPS6_
   fun:_ZN3re24Prog7FlattenEv
   fun:_ZN3re28Compiler6FinishEPNS_6RegexpE
   fun:_ZN3re28Compiler7CompileEPNS_6RegexpEbl
   fun:_ZN3re26Regexp13CompileToProgEl
   fun:_ZN3re23RE24InitERKNS_11StringPieceERKNS0_7OptionsE
   fun:_ZN3re23RE2C1ERKNS_11StringPieceERKNS0_7OptionsE
   fun:_ZSt11make_uniqueIN3re23RE2EJRKNSt7__cxx1112basic_stringIcSt11char_traitsIcESaIcEEERNS1_7OptionsEEENSt9_MakeUniqIT_E15__single_objectEDpOT0_
   fun:_ZN5ddwaf14rule_processor11regex_matchC1ERKNSt7__cxx1112basic_stringIcSt11char_traitsIcESaIcEEEmb
   fun:_ZN9__gnu_cxx13new_allocatorIN5ddwaf14rule_processor11regex_matchEE9constructIS3_JRNSt7__cxx1112basic_stringIcSt11char_traitsIcESaIcEEERlRbEEEvPT_DpOT0_
   fun:_ZNSt16allocator_traitsISaIN5ddwaf14rule_processor11regex_matchEEE9constructIS2_JRNSt7__cxx1112basic_stringIcSt11char_traitsIcESaIcEEERlRbEEEvRS3_PT_DpOT0_
}
{
   <insert_a_suppression_name_here>
   Memcheck:Value8
   fun:_ZNK3re211SparseArrayIiE9has_indexEi
   fun:_ZN3re24Prog14MarkSuccessorsEPNS_11SparseArrayIiEES3_PSt6vectorIS4_IiSaIiEESaIS6_EEPNS_10SparseSetTIvEEPS6_
   fun:_ZN3re24Prog7FlattenEv
   fun:_ZN3re28Compiler6FinishEPNS_6RegexpE
   fun:_ZN3re28Compiler7CompileEPNS_6RegexpEbl
   fun:_ZN3re26Regexp13CompileToProgEl
   fun:_ZN3re23RE24InitERKNS_11StringPieceERKNS0_7OptionsE
   fun:_ZN3re23RE2C1ERKNS_11StringPieceERKNS0_7OptionsE
   fun:_ZSt11make_uniqueIN3re23RE2EJRKNSt7__cxx1112basic_stringIcSt11char_traitsIcESaIcEEERNS1_7OptionsEEENSt9_MakeUniqIT_E15__single_objectEDpOT0_
   fun:_ZN5ddwaf14rule_processor11regex_matchC1ERKNSt7__cxx1112basic_stringIcSt11char_traitsIcESaIcEEEmb
   fun:_ZN9__gnu_cxx13new_allocatorIN5ddwaf14rule_processor11regex_matchEE9constructIS3_JRNSt7__cxx1112basic_stringIcSt11char_traitsIcESaIcEEERlRbEEEvPT_DpOT0_
   fun:_ZNSt16allocator_traitsISaIN5ddwaf14rule_processor11regex_matchEEE9constructIS2_JRNSt7__cxx1112basic_stringIcSt11char_traitsIcESaIcEEERlRbEEEvRS3_PT_DpOT0_
}
{
   <insert_a_suppression_name_here>
   Memcheck:Value8
   fun:_ZNK3re211SparseArrayIiE9has_indexEi
   fun:_ZN3re211SparseArrayIiE11SetInternalEbiRKi
   fun:_ZN3re211SparseArrayIiE7set_newEiRKi
   fun:_ZN3re24Prog14MarkSuccessorsEPNS_11SparseArrayIiEES3_PSt6vectorIS4_IiSaIiEESaIS6_EEPNS_10SparseSetTIvEEPS6_
   fun:_ZN3re24Prog7FlattenEv
   fun:_ZN3re28Compiler6FinishEPNS_6RegexpE
   fun:_ZN3re28Compiler7CompileEPNS_6RegexpEbl
   fun:_ZN3re26Regexp13CompileToProgEl
   fun:_ZN3re23RE24InitERKNS_11StringPieceERKNS0_7OptionsE
   fun:_ZN3re23RE2C1ERKNS_11StringPieceERKNS0_7OptionsE
   fun:_ZSt11make_uniqueIN3re23RE2EJRKNSt7__cxx1112basic_stringIcSt11char_traitsIcESaIcEEERNS1_7OptionsEEENSt9_MakeUniqIT_E15__single_objectEDpOT0_
   fun:_ZN5ddwaf14rule_processor11regex_matchC1ERKNSt7__cxx1112basic_stringIcSt11char_traitsIcESaIcEEEmb
}
{
   <insert_a_suppression_name_here>
   Memcheck:Value8
   fun:_ZNK3re211SparseArrayIiE9has_indexEi
   fun:_ZN3re211SparseArrayIiE12create_indexEi
   fun:_ZN3re211SparseArrayIiE11SetInternalEbiRKi
   fun:_ZN3re211SparseArrayIiE7set_newEiRKi
   fun:_ZN3re24Prog14MarkSuccessorsEPNS_11SparseArrayIiEES3_PSt6vectorIS4_IiSaIiEESaIS6_EEPNS_10SparseSetTIvEEPS6_
   fun:_ZN3re24Prog7FlattenEv
   fun:_ZN3re28Compiler6FinishEPNS_6RegexpE
   fun:_ZN3re28Compiler7CompileEPNS_6RegexpEbl
   fun:_ZN3re26Regexp13CompileToProgEl
   fun:_ZN3re23RE24InitERKNS_11StringPieceERKNS0_7OptionsE
   fun:_ZN3re23RE2C1ERKNS_11StringPieceERKNS0_7OptionsE
   fun:_ZSt11make_uniqueIN3re23RE2EJRKNSt7__cxx1112basic_stringIcSt11char_traitsIcESaIcEEERNS1_7OptionsEEENSt9_MakeUniqIT_E15__single_objectEDpOT0_
}
{
   <insert_a_suppression_name_here>
   Memcheck:Cond
   fun:_ZNK3re210SparseSetTIvE8containsEi
   fun:_ZN3re24Prog14MarkSuccessorsEPNS_11SparseArrayIiEES3_PSt6vectorIS4_IiSaIiEESaIS6_EEPNS_10SparseSetTIvEEPS6_
   fun:_ZN3re24Prog7FlattenEv
   fun:_ZN3re28Compiler6FinishEPNS_6RegexpE
   fun:_ZN3re28Compiler7CompileEPNS_6RegexpEbl
   fun:_ZN3re26Regexp13CompileToProgEl
   fun:_ZN3re23RE24InitERKNS_11StringPieceERKNS0_7OptionsE
   fun:_ZN3re23RE2C1ERKNS_11StringPieceERKNS0_7OptionsE
   fun:_ZSt11make_uniqueIN3re23RE2EJRKNSt7__cxx1112basic_stringIcSt11char_traitsIcESaIcEEERNS1_7OptionsEEENSt9_MakeUniqIT_E15__single_objectEDpOT0_
   fun:_ZN5ddwaf14rule_processor11regex_matchC1ERKNSt7__cxx1112basic_stringIcSt11char_traitsIcESaIcEEEmb
   fun:_ZN9__gnu_cxx13new_allocatorIN5ddwaf14rule_processor11regex_matchEE9constructIS3_JRNSt7__cxx1112basic_stringIcSt11char_traitsIcESaIcEEERlRbEEEvPT_DpOT0_
   fun:_ZNSt16allocator_traitsISaIN5ddwaf14rule_processor11regex_matchEEE9constructIS2_JRNSt7__cxx1112basic_stringIcSt11char_traitsIcESaIcEEERlRbEEEvRS3_PT_DpOT0_
}
{
   <insert_a_suppression_name_here>
   Memcheck:Cond
   fun:_ZNK3re210SparseSetTIvE8containsEi
   fun:_ZN3re210SparseSetTIvE14InsertInternalEbi
   fun:_ZN3re210SparseSetTIvE10insert_newEi
   fun:_ZN3re24Prog14MarkSuccessorsEPNS_11SparseArrayIiEES3_PSt6vectorIS4_IiSaIiEESaIS6_EEPNS_10SparseSetTIvEEPS6_
   fun:_ZN3re24Prog7FlattenEv
   fun:_ZN3re28Compiler6FinishEPNS_6RegexpE
   fun:_ZN3re28Compiler7CompileEPNS_6RegexpEbl
   fun:_ZN3re26Regexp13CompileToProgEl
   fun:_ZN3re23RE24InitERKNS_11StringPieceERKNS0_7OptionsE
   fun:_ZN3re23RE2C1ERKNS_11StringPieceERKNS0_7OptionsE
   fun:_ZSt11make_uniqueIN3re23RE2EJRKNSt7__cxx1112basic_stringIcSt11char_traitsIcESaIcEEERNS1_7OptionsEEENSt9_MakeUniqIT_E15__single_objectEDpOT0_
   fun:_ZN5ddwaf14rule_processor11regex_matchC1ERKNSt7__cxx1112basic_stringIcSt11char_traitsIcESaIcEEEmb
}
{
   <insert_a_suppression_name_here>
   Memcheck:Cond
   fun:_ZNK3re210SparseSetTIvE8containsEi
   fun:_ZN3re210SparseSetTIvE12create_indexEi
   fun:_ZN3re210SparseSetTIvE14InsertInternalEbi
   fun:_ZN3re210SparseSetTIvE10insert_newEi
   fun:_ZN3re24Prog14MarkSuccessorsEPNS_11SparseArrayIiEES3_PSt6vectorIS4_IiSaIiEESaIS6_EEPNS_10SparseSetTIvEEPS6_
   fun:_ZN3re24Prog7FlattenEv
   fun:_ZN3re28Compiler6FinishEPNS_6RegexpE
   fun:_ZN3re28Compiler7CompileEPNS_6RegexpEbl
   fun:_ZN3re26Regexp13CompileToProgEl
   fun:_ZN3re23RE24InitERKNS_11StringPieceERKNS0_7OptionsE
   fun:_ZN3re23RE2C1ERKNS_11StringPieceERKNS0_7OptionsE
   fun:_ZSt11make_uniqueIN3re23RE2EJRKNSt7__cxx1112basic_stringIcSt11char_traitsIcESaIcEEERNS1_7OptionsEEENSt9_MakeUniqIT_E15__single_objectEDpOT0_
}
{
   <insert_a_suppression_name_here>
   Memcheck:Value8
   fun:_ZNK3re210SparseSetTIvE8containsEi
   fun:_ZN3re24Prog14MarkSuccessorsEPNS_11SparseArrayIiEES3_PSt6vectorIS4_IiSaIiEESaIS6_EEPNS_10SparseSetTIvEEPS6_
   fun:_ZN3re24Prog7FlattenEv
   fun:_ZN3re28Compiler6FinishEPNS_6RegexpE
   fun:_ZN3re28Compiler7CompileEPNS_6RegexpEbl
   fun:_ZN3re26Regexp13CompileToProgEl
   fun:_ZN3re23RE24InitERKNS_11StringPieceERKNS0_7OptionsE
   fun:_ZN3re23RE2C1ERKNS_11StringPieceERKNS0_7OptionsE
   fun:_ZSt11make_uniqueIN3re23RE2EJRKNSt7__cxx1112basic_stringIcSt11char_traitsIcESaIcEEERNS1_7OptionsEEENSt9_MakeUniqIT_E15__single_objectEDpOT0_
   fun:_ZN5ddwaf14rule_processor11regex_matchC1ERKNSt7__cxx1112basic_stringIcSt11char_traitsIcESaIcEEEmb
   fun:_ZN9__gnu_cxx13new_allocatorIN5ddwaf14rule_processor11regex_matchEE9constructIS3_JRNSt7__cxx1112basic_stringIcSt11char_traitsIcESaIcEEERlRbEEEvPT_DpOT0_
   fun:_ZNSt16allocator_traitsISaIN5ddwaf14rule_processor11regex_matchEEE9constructIS2_JRNSt7__cxx1112basic_stringIcSt11char_traitsIcESaIcEEERlRbEEEvRS3_PT_DpOT0_
}
{
   <insert_a_suppression_name_here>
   Memcheck:Value8
   fun:_ZNK3re210SparseSetTIvE8containsEi
   fun:_ZN3re210SparseSetTIvE14InsertInternalEbi
   fun:_ZN3re210SparseSetTIvE10insert_newEi
   fun:_ZN3re24Prog14MarkSuccessorsEPNS_11SparseArrayIiEES3_PSt6vectorIS4_IiSaIiEESaIS6_EEPNS_10SparseSetTIvEEPS6_
   fun:_ZN3re24Prog7FlattenEv
   fun:_ZN3re28Compiler6FinishEPNS_6RegexpE
   fun:_ZN3re28Compiler7CompileEPNS_6RegexpEbl
   fun:_ZN3re26Regexp13CompileToProgEl
   fun:_ZN3re23RE24InitERKNS_11StringPieceERKNS0_7OptionsE
   fun:_ZN3re23RE2C1ERKNS_11StringPieceERKNS0_7OptionsE
   fun:_ZSt11make_uniqueIN3re23RE2EJRKNSt7__cxx1112basic_stringIcSt11char_traitsIcESaIcEEERNS1_7OptionsEEENSt9_MakeUniqIT_E15__single_objectEDpOT0_
   fun:_ZN5ddwaf14rule_processor11regex_matchC1ERKNSt7__cxx1112basic_stringIcSt11char_traitsIcESaIcEEEmb
}
{
   <insert_a_suppression_name_here>
   Memcheck:Value8
   fun:_ZNK3re210SparseSetTIvE8containsEi
   fun:_ZN3re210SparseSetTIvE12create_indexEi
   fun:_ZN3re210SparseSetTIvE14InsertInternalEbi
   fun:_ZN3re210SparseSetTIvE10insert_newEi
   fun:_ZN3re24Prog14MarkSuccessorsEPNS_11SparseArrayIiEES3_PSt6vectorIS4_IiSaIiEESaIS6_EEPNS_10SparseSetTIvEEPS6_
   fun:_ZN3re24Prog7FlattenEv
   fun:_ZN3re28Compiler6FinishEPNS_6RegexpE
   fun:_ZN3re28Compiler7CompileEPNS_6RegexpEbl
   fun:_ZN3re26Regexp13CompileToProgEl
   fun:_ZN3re23RE24InitERKNS_11StringPieceERKNS0_7OptionsE
   fun:_ZN3re23RE2C1ERKNS_11StringPieceERKNS0_7OptionsE
   fun:_ZSt11make_uniqueIN3re23RE2EJRKNSt7__cxx1112basic_stringIcSt11char_traitsIcESaIcEEERNS1_7OptionsEEENSt9_MakeUniqIT_E15__single_objectEDpOT0_
}
{
   <insert_a_suppression_name_here>
   Memcheck:Cond
   fun:_ZNK3re211SparseArrayIiE9has_indexEi
   fun:_ZN3re24Prog13MarkDominatorEiPNS_11SparseArrayIiEES3_PSt6vectorIS4_IiSaIiEESaIS6_EEPNS_10SparseSetTIvEEPS6_
   fun:_ZN3re24Prog7FlattenEv
   fun:_ZN3re28Compiler6FinishEPNS_6RegexpE
   fun:_ZN3re28Compiler7CompileEPNS_6RegexpEbl
   fun:_ZN3re26Regexp13CompileToProgEl
   fun:_ZN3re23RE24InitERKNS_11StringPieceERKNS0_7OptionsE
   fun:_ZN3re23RE2C1ERKNS_11StringPieceERKNS0_7OptionsE
   fun:_ZSt11make_uniqueIN3re23RE2EJRKNSt7__cxx1112basic_stringIcSt11char_traitsIcESaIcEEERNS1_7OptionsEEENSt9_MakeUniqIT_E15__single_objectEDpOT0_
   fun:_ZN5ddwaf14rule_processor11regex_matchC1ERKNSt7__cxx1112basic_stringIcSt11char_traitsIcESaIcEEEmb
   fun:_ZN9__gnu_cxx13new_allocatorIN5ddwaf14rule_processor11regex_matchEE9constructIS3_JRNSt7__cxx1112basic_stringIcSt11char_traitsIcESaIcEEERlRbEEEvPT_DpOT0_
   fun:_ZNSt16allocator_traitsISaIN5ddwaf14rule_processor11regex_matchEEE9constructIS2_JRNSt7__cxx1112basic_stringIcSt11char_traitsIcESaIcEEERlRbEEEvRS3_PT_DpOT0_
}
{
   <insert_a_suppression_name_here>
   Memcheck:Value8
   fun:_ZNK3re211SparseArrayIiE9has_indexEi
   fun:_ZN3re24Prog13MarkDominatorEiPNS_11SparseArrayIiEES3_PSt6vectorIS4_IiSaIiEESaIS6_EEPNS_10SparseSetTIvEEPS6_
   fun:_ZN3re24Prog7FlattenEv
   fun:_ZN3re28Compiler6FinishEPNS_6RegexpE
   fun:_ZN3re28Compiler7CompileEPNS_6RegexpEbl
   fun:_ZN3re26Regexp13CompileToProgEl
   fun:_ZN3re23RE24InitERKNS_11StringPieceERKNS0_7OptionsE
   fun:_ZN3re23RE2C1ERKNS_11StringPieceERKNS0_7OptionsE
   fun:_ZSt11make_uniqueIN3re23RE2EJRKNSt7__cxx1112basic_stringIcSt11char_traitsIcESaIcEEERNS1_7OptionsEEENSt9_MakeUniqIT_E15__single_objectEDpOT0_
   fun:_ZN5ddwaf14rule_processor11regex_matchC1ERKNSt7__cxx1112basic_stringIcSt11char_traitsIcESaIcEEEmb
   fun:_ZN9__gnu_cxx13new_allocatorIN5ddwaf14rule_processor11regex_matchEE9constructIS3_JRNSt7__cxx1112basic_stringIcSt11char_traitsIcESaIcEEERlRbEEEvPT_DpOT0_
   fun:_ZNSt16allocator_traitsISaIN5ddwaf14rule_processor11regex_matchEEE9constructIS2_JRNSt7__cxx1112basic_stringIcSt11char_traitsIcESaIcEEERlRbEEEvRS3_PT_DpOT0_
}
{
   <insert_a_suppression_name_here>
   Memcheck:Cond
   fun:_ZNK3re210SparseSetTIvE8containsEi
   fun:_ZN3re24Prog8EmitListEiPNS_11SparseArrayIiEEPSt6vectorINS0_4InstESaIS5_EEPNS_10SparseSetTIvEEPS4_IiSaIiEE
   fun:_ZN3re24Prog7FlattenEv
   fun:_ZN3re28Compiler6FinishEPNS_6RegexpE
   fun:_ZN3re28Compiler7CompileEPNS_6RegexpEbl
   fun:_ZN3re26Regexp13CompileToProgEl
   fun:_ZN3re23RE24InitERKNS_11StringPieceERKNS0_7OptionsE
   fun:_ZN3re23RE2C1ERKNS_11StringPieceERKNS0_7OptionsE
   fun:_ZSt11make_uniqueIN3re23RE2EJRKNSt7__cxx1112basic_stringIcSt11char_traitsIcESaIcEEERNS1_7OptionsEEENSt9_MakeUniqIT_E15__single_objectEDpOT0_
   fun:_ZN5ddwaf14rule_processor11regex_matchC1ERKNSt7__cxx1112basic_stringIcSt11char_traitsIcESaIcEEEmb
   fun:_ZN9__gnu_cxx13new_allocatorIN5ddwaf14rule_processor11regex_matchEE9constructIS3_JRNSt7__cxx1112basic_stringIcSt11char_traitsIcESaIcEEERlRbEEEvPT_DpOT0_
   fun:_ZNSt16allocator_traitsISaIN5ddwaf14rule_processor11regex_matchEEE9constructIS2_JRNSt7__cxx1112basic_stringIcSt11char_traitsIcESaIcEEERlRbEEEvRS3_PT_DpOT0_
}
{
   <insert_a_suppression_name_here>
   Memcheck:Cond
   fun:_ZNK3re210SparseSetTIvE8containsEi
   fun:_ZN3re210SparseSetTIvE14InsertInternalEbi
   fun:_ZN3re210SparseSetTIvE10insert_newEi
   fun:_ZN3re24Prog8EmitListEiPNS_11SparseArrayIiEEPSt6vectorINS0_4InstESaIS5_EEPNS_10SparseSetTIvEEPS4_IiSaIiEE
   fun:_ZN3re24Prog7FlattenEv
   fun:_ZN3re28Compiler6FinishEPNS_6RegexpE
   fun:_ZN3re28Compiler7CompileEPNS_6RegexpEbl
   fun:_ZN3re26Regexp13CompileToProgEl
   fun:_ZN3re23RE24InitERKNS_11StringPieceERKNS0_7OptionsE
   fun:_ZN3re23RE2C1ERKNS_11StringPieceERKNS0_7OptionsE
   fun:_ZSt11make_uniqueIN3re23RE2EJRKNSt7__cxx1112basic_stringIcSt11char_traitsIcESaIcEEERNS1_7OptionsEEENSt9_MakeUniqIT_E15__single_objectEDpOT0_
   fun:_ZN5ddwaf14rule_processor11regex_matchC1ERKNSt7__cxx1112basic_stringIcSt11char_traitsIcESaIcEEEmb
}
{
   <insert_a_suppression_name_here>
   Memcheck:Cond
   fun:_ZNK3re211SparseArrayIiE9has_indexEi
   fun:_ZN3re24Prog8EmitListEiPNS_11SparseArrayIiEEPSt6vectorINS0_4InstESaIS5_EEPNS_10SparseSetTIvEEPS4_IiSaIiEE
   fun:_ZN3re24Prog7FlattenEv
   fun:_ZN3re28Compiler6FinishEPNS_6RegexpE
   fun:_ZN3re28Compiler7CompileEPNS_6RegexpEbl
   fun:_ZN3re26Regexp13CompileToProgEl
   fun:_ZN3re23RE24InitERKNS_11StringPieceERKNS0_7OptionsE
   fun:_ZN3re23RE2C1ERKNS_11StringPieceERKNS0_7OptionsE
   fun:_ZSt11make_uniqueIN3re23RE2EJRKNSt7__cxx1112basic_stringIcSt11char_traitsIcESaIcEEERNS1_7OptionsEEENSt9_MakeUniqIT_E15__single_objectEDpOT0_
   fun:_ZN5ddwaf14rule_processor11regex_matchC1ERKNSt7__cxx1112basic_stringIcSt11char_traitsIcESaIcEEEmb
   fun:_ZN9__gnu_cxx13new_allocatorIN5ddwaf14rule_processor11regex_matchEE9constructIS3_JRNSt7__cxx1112basic_stringIcSt11char_traitsIcESaIcEEERlRbEEEvPT_DpOT0_
   fun:_ZNSt16allocator_traitsISaIN5ddwaf14rule_processor11regex_matchEEE9constructIS2_JRNSt7__cxx1112basic_stringIcSt11char_traitsIcESaIcEEERlRbEEEvRS3_PT_DpOT0_
}
{
   <insert_a_suppression_name_here>
   Memcheck:Value8
   fun:_ZNK3re211SparseArrayIiE9has_indexEi
   fun:_ZN3re24Prog8EmitListEiPNS_11SparseArrayIiEEPSt6vectorINS0_4InstESaIS5_EEPNS_10SparseSetTIvEEPS4_IiSaIiEE
   fun:_ZN3re24Prog7FlattenEv
   fun:_ZN3re28Compiler6FinishEPNS_6RegexpE
   fun:_ZN3re28Compiler7CompileEPNS_6RegexpEbl
   fun:_ZN3re26Regexp13CompileToProgEl
   fun:_ZN3re23RE24InitERKNS_11StringPieceERKNS0_7OptionsE
   fun:_ZN3re23RE2C1ERKNS_11StringPieceERKNS0_7OptionsE
   fun:_ZSt11make_uniqueIN3re23RE2EJRKNSt7__cxx1112basic_stringIcSt11char_traitsIcESaIcEEERNS1_7OptionsEEENSt9_MakeUniqIT_E15__single_objectEDpOT0_
   fun:_ZN5ddwaf14rule_processor11regex_matchC1ERKNSt7__cxx1112basic_stringIcSt11char_traitsIcESaIcEEEmb
   fun:_ZN9__gnu_cxx13new_allocatorIN5ddwaf14rule_processor11regex_matchEE9constructIS3_JRNSt7__cxx1112basic_stringIcSt11char_traitsIcESaIcEEERlRbEEEvPT_DpOT0_
   fun:_ZNSt16allocator_traitsISaIN5ddwaf14rule_processor11regex_matchEEE9constructIS2_JRNSt7__cxx1112basic_stringIcSt11char_traitsIcESaIcEEERlRbEEEvRS3_PT_DpOT0_
}
{
   <insert_a_suppression_name_here>
   Memcheck:Cond
   fun:_ZNK3re210SparseSetTIvE8containsEi
   fun:_ZN3re2L4AddQEPNS_10SparseSetTIvEEi
   fun:_ZN3re24Prog9IsOnePassEv
   fun:_ZN3re23RE24InitERKNS_11StringPieceERKNS0_7OptionsE
   fun:_ZN3re23RE2C1ERKNS_11StringPieceERKNS0_7OptionsE
   fun:_ZSt11make_uniqueIN3re23RE2EJRKNSt7__cxx1112basic_stringIcSt11char_traitsIcESaIcEEERNS1_7OptionsEEENSt9_MakeUniqIT_E15__single_objectEDpOT0_
   fun:_ZN5ddwaf14rule_processor11regex_matchC1ERKNSt7__cxx1112basic_stringIcSt11char_traitsIcESaIcEEEmb
   fun:_ZN9__gnu_cxx13new_allocatorIN5ddwaf14rule_processor11regex_matchEE9constructIS3_JRNSt7__cxx1112basic_stringIcSt11char_traitsIcESaIcEEERlRbEEEvPT_DpOT0_
   fun:_ZNSt16allocator_traitsISaIN5ddwaf14rule_processor11regex_matchEEE9constructIS2_JRNSt7__cxx1112basic_stringIcSt11char_traitsIcESaIcEEERlRbEEEvRS3_PT_DpOT0_
   fun:_ZNSt23_Sp_counted_ptr_inplaceIN5ddwaf14rule_processor11regex_matchESaIS2_ELN9__gnu_cxx12_Lock_policyE2EEC1IJRNSt7__cxx1112basic_stringIcSt11char_traitsIcESaIcEEERlRbEEES3_DpOT_
   fun:_ZNSt14__shared_countILN9__gnu_cxx12_Lock_policyE2EEC1IN5ddwaf14rule_processor11regex_matchESaIS6_EJRNSt7__cxx1112basic_stringIcSt11char_traitsIcESaIcEEERlRbEEERPT_St20_Sp_alloc_shared_tagIT0_EDpOT1_
   fun:_ZNSt12__shared_ptrIN5ddwaf14rule_processor11regex_matchELN9__gnu_cxx12_Lock_policyE2EEC1ISaIS2_EJRNSt7__cxx1112basic_stringIcSt11char_traitsIcESaIcEEERlRbEEESt20_Sp_alloc_shared_tagIT_EDpOT0_
}
{
   <insert_a_suppression_name_here>
   Memcheck:Cond
   fun:_ZNK3re210SparseSetTIvE8containsEi
   fun:_ZN3re210SparseSetTIvE14InsertInternalEbi
   fun:_ZN3re210SparseSetTIvE6insertEi
   fun:_ZN3re2L4AddQEPNS_10SparseSetTIvEEi
   fun:_ZN3re24Prog9IsOnePassEv
   fun:_ZN3re23RE24InitERKNS_11StringPieceERKNS0_7OptionsE
   fun:_ZN3re23RE2C1ERKNS_11StringPieceERKNS0_7OptionsE
   fun:_ZSt11make_uniqueIN3re23RE2EJRKNSt7__cxx1112basic_stringIcSt11char_traitsIcESaIcEEERNS1_7OptionsEEENSt9_MakeUniqIT_E15__single_objectEDpOT0_
   fun:_ZN5ddwaf14rule_processor11regex_matchC1ERKNSt7__cxx1112basic_stringIcSt11char_traitsIcESaIcEEEmb
   fun:_ZN9__gnu_cxx13new_allocatorIN5ddwaf14rule_processor11regex_matchEE9constructIS3_JRNSt7__cxx1112basic_stringIcSt11char_traitsIcESaIcEEERlRbEEEvPT_DpOT0_
   fun:_ZNSt16allocator_traitsISaIN5ddwaf14rule_processor11regex_matchEEE9constructIS2_JRNSt7__cxx1112basic_stringIcSt11char_traitsIcESaIcEEERlRbEEEvRS3_PT_DpOT0_
   fun:_ZNSt23_Sp_counted_ptr_inplaceIN5ddwaf14rule_processor11regex_matchESaIS2_ELN9__gnu_cxx12_Lock_policyE2EEC1IJRNSt7__cxx1112basic_stringIcSt11char_traitsIcESaIcEEERlRbEEES3_DpOT_
}
{
   <insert_a_suppression_name_here>
   Memcheck:Value8
   fun:_ZNK3re210SparseSetTIvE8containsEi
   fun:_ZN3re2L4AddQEPNS_10SparseSetTIvEEi
   fun:_ZN3re24Prog9IsOnePassEv
   fun:_ZN3re23RE24InitERKNS_11StringPieceERKNS0_7OptionsE
   fun:_ZN3re23RE2C1ERKNS_11StringPieceERKNS0_7OptionsE
   fun:_ZSt11make_uniqueIN3re23RE2EJRKNSt7__cxx1112basic_stringIcSt11char_traitsIcESaIcEEERNS1_7OptionsEEENSt9_MakeUniqIT_E15__single_objectEDpOT0_
   fun:_ZN5ddwaf14rule_processor11regex_matchC1ERKNSt7__cxx1112basic_stringIcSt11char_traitsIcESaIcEEEmb
   fun:_ZN9__gnu_cxx13new_allocatorIN5ddwaf14rule_processor11regex_matchEE9constructIS3_JRNSt7__cxx1112basic_stringIcSt11char_traitsIcESaIcEEERlRbEEEvPT_DpOT0_
   fun:_ZNSt16allocator_traitsISaIN5ddwaf14rule_processor11regex_matchEEE9constructIS2_JRNSt7__cxx1112basic_stringIcSt11char_traitsIcESaIcEEERlRbEEEvRS3_PT_DpOT0_
   fun:_ZNSt23_Sp_counted_ptr_inplaceIN5ddwaf14rule_processor11regex_matchESaIS2_ELN9__gnu_cxx12_Lock_policyE2EEC1IJRNSt7__cxx1112basic_stringIcSt11char_traitsIcESaIcEEERlRbEEES3_DpOT_
   fun:_ZNSt14__shared_countILN9__gnu_cxx12_Lock_policyE2EEC1IN5ddwaf14rule_processor11regex_matchESaIS6_EJRNSt7__cxx1112basic_stringIcSt11char_traitsIcESaIcEEERlRbEEERPT_St20_Sp_alloc_shared_tagIT0_EDpOT1_
   fun:_ZNSt12__shared_ptrIN5ddwaf14rule_processor11regex_matchELN9__gnu_cxx12_Lock_policyE2EEC1ISaIS2_EJRNSt7__cxx1112basic_stringIcSt11char_traitsIcESaIcEEERlRbEEESt20_Sp_alloc_shared_tagIT_EDpOT0_
}
{
   <insert_a_suppression_name_here>
   Memcheck:Value8
   fun:_ZNK3re210SparseSetTIvE8containsEi
   fun:_ZN3re210SparseSetTIvE14InsertInternalEbi
   fun:_ZN3re210SparseSetTIvE6insertEi
   fun:_ZN3re2L4AddQEPNS_10SparseSetTIvEEi
   fun:_ZN3re24Prog9IsOnePassEv
   fun:_ZN3re23RE24InitERKNS_11StringPieceERKNS0_7OptionsE
   fun:_ZN3re23RE2C1ERKNS_11StringPieceERKNS0_7OptionsE
   fun:_ZSt11make_uniqueIN3re23RE2EJRKNSt7__cxx1112basic_stringIcSt11char_traitsIcESaIcEEERNS1_7OptionsEEENSt9_MakeUniqIT_E15__single_objectEDpOT0_
   fun:_ZN5ddwaf14rule_processor11regex_matchC1ERKNSt7__cxx1112basic_stringIcSt11char_traitsIcESaIcEEEmb
   fun:_ZN9__gnu_cxx13new_allocatorIN5ddwaf14rule_processor11regex_matchEE9constructIS3_JRNSt7__cxx1112basic_stringIcSt11char_traitsIcESaIcEEERlRbEEEvPT_DpOT0_
   fun:_ZNSt16allocator_traitsISaIN5ddwaf14rule_processor11regex_matchEEE9constructIS2_JRNSt7__cxx1112basic_stringIcSt11char_traitsIcESaIcEEERlRbEEEvRS3_PT_DpOT0_
   fun:_ZNSt23_Sp_counted_ptr_inplaceIN5ddwaf14rule_processor11regex_matchESaIS2_ELN9__gnu_cxx12_Lock_policyE2EEC1IJRNSt7__cxx1112basic_stringIcSt11char_traitsIcESaIcEEERlRbEEES3_DpOT_
}
{
   <insert_a_suppression_name_here>
   Memcheck:Cond
   fun:_ZNK3re210SparseSetTIvE8containsEi
   fun:_ZN3re23DFA10AddToQueueEPNS0_5WorkqEij
   fun:_ZN3re23DFA19AnalyzeSearchHelperEPNS0_12SearchParamsEPNS0_9StartInfoEj
   fun:_ZN3re23DFA13AnalyzeSearchEPNS0_12SearchParamsE
   fun:_ZN3re23DFA6SearchERKNS_11StringPieceES3_bbbPbPPKcPNS_10SparseSetTIvEE
   fun:_ZN3re24Prog9SearchDFAERKNS_11StringPieceES3_NS0_6AnchorENS0_9MatchKindEPS1_PbPNS_10SparseSetTIvEE
   fun:_ZNK3re23RE25MatchERKNS_11StringPieceEmmNS0_6AnchorEPS1_i
   fun:_ZNK5ddwaf14rule_processor11regex_match5matchESt17basic_string_viewIcSt11char_traitsIcEE
   fun:_ZNK5ddwaf9condition12match_objectEPK13_ddwaf_objectRKSt10shared_ptrINS_14rule_processor4baseEE
   fun:_ZNK5ddwaf9condition12match_targetINS_6object14value_iteratorEEESt8optionalINS_5event5matchEERT_RKSt10shared_ptrINS_14rule_processor4baseEERNS_5timerE
   fun:_ZNK5ddwaf9condition5matchERKNS_12object_storeERKSt13unordered_setIPK13_ddwaf_objectSt4hashIS7_ESt8equal_toIS7_ESaIS7_EEbRKSt13unordered_mapINSt7__cxx1112basic_stringIcSt11char_traitsIcESaIcEEESt10shared_ptrINS_14rule_processor4baseEES8_ISM_ESA_ISM_ESaISt4pairIKSM_SQ_EEERNS_5timerE
   fun:_ZNK5ddwaf4rule5matchERKNS_12object_storeERNS0_10cache_typeERKSt13unordered_setIPK13_ddwaf_objectSt4hashIS9_ESt8equal_toIS9_ESaIS9_EERKSt13unordered_mapINSt7__cxx1112basic_stringIcSt11char_traitsIcESaIcEEESt10shared_ptrINS_14rule_processor4baseEESA_ISO_ESC_ISO_ESaISt4pairIKSO_SS_EEERNS_5timerE
}
{
   <insert_a_suppression_name_here>
   Memcheck:Cond
   fun:_ZNK3re210SparseSetTIvE8containsEi
   fun:_ZN3re210SparseSetTIvE14InsertInternalEbi
   fun:_ZN3re210SparseSetTIvE10insert_newEi
   fun:_ZN3re23DFA5Workq10insert_newEi
   fun:_ZN3re23DFA10AddToQueueEPNS0_5WorkqEij
   fun:_ZN3re23DFA19AnalyzeSearchHelperEPNS0_12SearchParamsEPNS0_9StartInfoEj
   fun:_ZN3re23DFA13AnalyzeSearchEPNS0_12SearchParamsE
   fun:_ZN3re23DFA6SearchERKNS_11StringPieceES3_bbbPbPPKcPNS_10SparseSetTIvEE
   fun:_ZN3re24Prog9SearchDFAERKNS_11StringPieceES3_NS0_6AnchorENS0_9MatchKindEPS1_PbPNS_10SparseSetTIvEE
   fun:_ZNK3re23RE25MatchERKNS_11StringPieceEmmNS0_6AnchorEPS1_i
   fun:_ZNK5ddwaf14rule_processor11regex_match5matchESt17basic_string_viewIcSt11char_traitsIcEE
   fun:_ZNK5ddwaf9condition12match_objectEPK13_ddwaf_objectRKSt10shared_ptrINS_14rule_processor4baseEE
}
{
   <insert_a_suppression_name_here>
   Memcheck:Value8
   fun:_ZNK3re210SparseSetTIvE8containsEi
   fun:_ZN3re23DFA10AddToQueueEPNS0_5WorkqEij
   fun:_ZN3re23DFA19AnalyzeSearchHelperEPNS0_12SearchParamsEPNS0_9StartInfoEj
   fun:_ZN3re23DFA13AnalyzeSearchEPNS0_12SearchParamsE
   fun:_ZN3re23DFA6SearchERKNS_11StringPieceES3_bbbPbPPKcPNS_10SparseSetTIvEE
   fun:_ZN3re24Prog9SearchDFAERKNS_11StringPieceES3_NS0_6AnchorENS0_9MatchKindEPS1_PbPNS_10SparseSetTIvEE
   fun:_ZNK3re23RE25MatchERKNS_11StringPieceEmmNS0_6AnchorEPS1_i
   fun:_ZNK5ddwaf14rule_processor11regex_match5matchESt17basic_string_viewIcSt11char_traitsIcEE
   fun:_ZNK5ddwaf9condition12match_objectEPK13_ddwaf_objectRKSt10shared_ptrINS_14rule_processor4baseEE
   fun:_ZNK5ddwaf9condition12match_targetINS_6object14value_iteratorEEESt8optionalINS_5event5matchEERT_RKSt10shared_ptrINS_14rule_processor4baseEERNS_5timerE
   fun:_ZNK5ddwaf9condition5matchERKNS_12object_storeERKSt13unordered_setIPK13_ddwaf_objectSt4hashIS7_ESt8equal_toIS7_ESaIS7_EEbRKSt13unordered_mapINSt7__cxx1112basic_stringIcSt11char_traitsIcESaIcEEESt10shared_ptrINS_14rule_processor4baseEES8_ISM_ESA_ISM_ESaISt4pairIKSM_SQ_EEERNS_5timerE
   fun:_ZNK5ddwaf4rule5matchERKNS_12object_storeERNS0_10cache_typeERKSt13unordered_setIPK13_ddwaf_objectSt4hashIS9_ESt8equal_toIS9_ESaIS9_EERKSt13unordered_mapINSt7__cxx1112basic_stringIcSt11char_traitsIcESaIcEEESt10shared_ptrINS_14rule_processor4baseEESA_ISO_ESC_ISO_ESaISt4pairIKSO_SS_EEERNS_5timerE
}
{
   <insert_a_suppression_name_here>
   Memcheck:Value8
   fun:_ZNK3re210SparseSetTIvE8containsEi
   fun:_ZN3re210SparseSetTIvE14InsertInternalEbi
   fun:_ZN3re210SparseSetTIvE10insert_newEi
   fun:_ZN3re23DFA5Workq10insert_newEi
   fun:_ZN3re23DFA10AddToQueueEPNS0_5WorkqEij
   fun:_ZN3re23DFA19AnalyzeSearchHelperEPNS0_12SearchParamsEPNS0_9StartInfoEj
   fun:_ZN3re23DFA13AnalyzeSearchEPNS0_12SearchParamsE
   fun:_ZN3re23DFA6SearchERKNS_11StringPieceES3_bbbPbPPKcPNS_10SparseSetTIvEE
   fun:_ZN3re24Prog9SearchDFAERKNS_11StringPieceES3_NS0_6AnchorENS0_9MatchKindEPS1_PbPNS_10SparseSetTIvEE
   fun:_ZNK3re23RE25MatchERKNS_11StringPieceEmmNS0_6AnchorEPS1_i
   fun:_ZNK5ddwaf14rule_processor11regex_match5matchESt17basic_string_viewIcSt11char_traitsIcEE
   fun:_ZNK5ddwaf9condition12match_objectEPK13_ddwaf_objectRKSt10shared_ptrINS_14rule_processor4baseEE
}
{
   <insert_a_suppression_name_here>
   Memcheck:Cond
   fun:_ZNK3re210SparseSetTIvE8containsEi
   fun:_ZN3re23DFA10AddToQueueEPNS0_5WorkqEij
   fun:_ZN3re23DFA14RunWorkqOnByteEPNS0_5WorkqES2_ijPb
   fun:_ZN3re23DFA14RunStateOnByteEPNS0_5StateEi
   fun:_ZN3re23DFA22RunStateOnByteUnlockedEPNS0_5StateEi
   fun:_ZN3re23DFA17InlinedSearchLoopILb1ELb0ELb1EEEbPNS0_12SearchParamsE
   fun:_ZN3re23DFA9SearchTFTEPNS0_12SearchParamsE
   fun:_ZN3re23DFA14FastSearchLoopEPNS0_12SearchParamsE
   fun:_ZN3re23DFA6SearchERKNS_11StringPieceES3_bbbPbPPKcPNS_10SparseSetTIvEE
   fun:_ZN3re24Prog9SearchDFAERKNS_11StringPieceES3_NS0_6AnchorENS0_9MatchKindEPS1_PbPNS_10SparseSetTIvEE
   fun:_ZNK3re23RE25MatchERKNS_11StringPieceEmmNS0_6AnchorEPS1_i
   fun:_ZNK5ddwaf14rule_processor11regex_match5matchESt17basic_string_viewIcSt11char_traitsIcEE
}
{
   <insert_a_suppression_name_here>
   Memcheck:Value8
   fun:_ZNK3re210SparseSetTIvE8containsEi
   fun:_ZN3re23DFA10AddToQueueEPNS0_5WorkqEij
   fun:_ZN3re23DFA14RunWorkqOnByteEPNS0_5WorkqES2_ijPb
   fun:_ZN3re23DFA14RunStateOnByteEPNS0_5StateEi
   fun:_ZN3re23DFA22RunStateOnByteUnlockedEPNS0_5StateEi
   fun:_ZN3re23DFA17InlinedSearchLoopILb1ELb0ELb1EEEbPNS0_12SearchParamsE
   fun:_ZN3re23DFA9SearchTFTEPNS0_12SearchParamsE
   fun:_ZN3re23DFA14FastSearchLoopEPNS0_12SearchParamsE
   fun:_ZN3re23DFA6SearchERKNS_11StringPieceES3_bbbPbPPKcPNS_10SparseSetTIvEE
   fun:_ZN3re24Prog9SearchDFAERKNS_11StringPieceES3_NS0_6AnchorENS0_9MatchKindEPS1_PbPNS_10SparseSetTIvEE
   fun:_ZNK3re23RE25MatchERKNS_11StringPieceEmmNS0_6AnchorEPS1_i
   fun:_ZNK5ddwaf14rule_processor11regex_match5matchESt17basic_string_viewIcSt11char_traitsIcEE
}
{
   <insert_a_suppression_name_here>
   Memcheck:Cond
   fun:_ZNK3re210SparseSetTIvE8containsEi
   fun:_ZN3re210SparseSetTIvE14InsertInternalEbi
   fun:_ZN3re210SparseSetTIvE10insert_newEi
   fun:_ZN3re23DFA5Workq4markEv
   fun:_ZN3re23DFA10AddToQueueEPNS0_5WorkqEij
   fun:_ZN3re23DFA19AnalyzeSearchHelperEPNS0_12SearchParamsEPNS0_9StartInfoEj
   fun:_ZN3re23DFA13AnalyzeSearchEPNS0_12SearchParamsE
   fun:_ZN3re23DFA6SearchERKNS_11StringPieceES3_bbbPbPPKcPNS_10SparseSetTIvEE
   fun:_ZN3re24Prog9SearchDFAERKNS_11StringPieceES3_NS0_6AnchorENS0_9MatchKindEPS1_PbPNS_10SparseSetTIvEE
   fun:_ZNK3re23RE25MatchERKNS_11StringPieceEmmNS0_6AnchorEPS1_i
   fun:_ZN5ddwaf12_GLOBAL__N_15matchERN3re23RE2ESt17basic_string_viewIcSt11char_traitsIcEE
   fun:_ZNK5ddwaf10obfuscator16is_sensitive_keyESt17basic_string_viewIcSt11char_traitsIcEE
}
{
   <insert_a_suppression_name_here>
   Memcheck:Value8
   fun:_ZNK3re210SparseSetTIvE8containsEi
   fun:_ZN3re210SparseSetTIvE14InsertInternalEbi
   fun:_ZN3re210SparseSetTIvE10insert_newEi
   fun:_ZN3re23DFA5Workq4markEv
   fun:_ZN3re23DFA10AddToQueueEPNS0_5WorkqEij
   fun:_ZN3re23DFA19AnalyzeSearchHelperEPNS0_12SearchParamsEPNS0_9StartInfoEj
   fun:_ZN3re23DFA13AnalyzeSearchEPNS0_12SearchParamsE
   fun:_ZN3re23DFA6SearchERKNS_11StringPieceES3_bbbPbPPKcPNS_10SparseSetTIvEE
   fun:_ZN3re24Prog9SearchDFAERKNS_11StringPieceES3_NS0_6AnchorENS0_9MatchKindEPS1_PbPNS_10SparseSetTIvEE
   fun:_ZNK3re23RE25MatchERKNS_11StringPieceEmmNS0_6AnchorEPS1_i
   fun:_ZN5ddwaf12_GLOBAL__N_15matchERN3re23RE2ESt17basic_string_viewIcSt11char_traitsIcEE
   fun:_ZNK5ddwaf10obfuscator16is_sensitive_keyESt17basic_string_viewIcSt11char_traitsIcEE
}
{
   <insert_a_suppression_name_here>
   Memcheck:Leak
   match-leak-kinds: reachable
   fun:_Znwm
   fun:_ZZN3re23RE24InitERKNS_11StringPieceERKNS0_7OptionsEENKUlvE_clEv
   fun:_ZSt13__invoke_implIvZN3re23RE24InitERKNS0_11StringPieceERKNS1_7OptionsEEUlvE_JEET_St14__invoke_otherOT0_DpOT1_
   fun:_ZSt8__invokeIZN3re23RE24InitERKNS0_11StringPieceERKNS1_7OptionsEEUlvE_JEENSt15__invoke_resultIT_JDpT0_EE4typeEOSA_DpOSB_
   fun:_ZZSt9call_onceIZN3re23RE24InitERKNS0_11StringPieceERKNS1_7OptionsEEUlvE_JEEvRSt9once_flagOT_DpOT0_ENKUlvE_clEv
   fun:_ZZNSt9once_flag18_Prepare_executionC4IZSt9call_onceIZN3re23RE24InitERKNS3_11StringPieceERKNS4_7OptionsEEUlvE_JEEvRS_OT_DpOT0_EUlvE_EERSD_ENKUlvE_clEv
   fun:_ZZNSt9once_flag18_Prepare_executionC4IZSt9call_onceIZN3re23RE24InitERKNS3_11StringPieceERKNS4_7OptionsEEUlvE_JEEvRS_OT_DpOT0_EUlvE_EERSD_ENUlvE_4_FUNEv
   fun:__pthread_once_slow
   fun:_ZL14__gthread_oncePiPFvvE
   fun:_ZSt9call_onceIZN3re23RE24InitERKNS0_11StringPieceERKNS1_7OptionsEEUlvE_JEEvRSt9once_flagOT_DpOT0_
   fun:_ZN3re23RE24InitERKNS_11StringPieceERKNS0_7OptionsE
   fun:_ZN3re23RE2C1ERKNS_11StringPieceERKNS0_7OptionsE
}
